target datalayout = "e-m:e-p270:32:32-p271:32:32-p272:64:64-i64:64-i128:128-f80:128-n8:16:32:64-S128"
target triple = "x86_64-pc-linux-gnu"

%struct._attribute_common_fields = type { i32, i32, i32, i32, i32 }
%struct.expert_field = type { i32, i32 }

@hf_isakmp_ipsec_attr = internal global %struct._attribute_common_fields zeroinitializer, align 8
@hf_isakmp_ipsec_attr_life_type = internal global i32 0, align 4
@hf_isakmp_ipsec_attr_life_duration_uint32 = internal global i32 0, align 4
@hf_isakmp_ipsec_attr_life_duration_uint64 = internal global i32 0, align 4
@hf_isakmp_ipsec_attr_life_duration_bytes = internal global i32 0, align 4
@hf_isakmp_ipsec_attr_group_description = internal global i32 0, align 4
@hf_isakmp_ipsec_attr_encap_mode = internal global i32 0, align 4
@hf_isakmp_ipsec_attr_auth_algorithm = internal global i32 0, align 4
@hf_isakmp_ipsec_attr_key_length = internal global i32 0, align 4
@hf_isakmp_ipsec_attr_key_rounds = internal global i32 0, align 4
@hf_isakmp_ipsec_attr_cmpr_dict_size = internal global i32 0, align 4
@hf_isakmp_ipsec_attr_cmpr_algorithm = internal global i32 0, align 4
@hf_isakmp_ipsec_attr_ecn_tunnel = internal global i32 0, align 4
@hf_isakmp_ipsec_attr_ext_seq_nbr = internal global i32 0, align 4
@hf_isakmp_ipsec_attr_auth_key_length = internal global i32 0, align 4
@hf_isakmp_ipsec_attr_sig_enco_algorithm = internal global i32 0, align 4
@hf_isakmp_ipsec_attr_addr_preservation = internal global i32 0, align 4
@hf_isakmp_ipsec_attr_sa_direction = internal global i32 0, align 4
@ei_isakmp_attribute_value_empty = internal global %struct.expert_field zeroinitializer, align 4
@.str.847 = private unnamed_addr constant [5 x i8] c": %s\00", align 1
@.str.848 = private unnamed_addr constant [11 x i8] c"Unknown %d\00", align 1
@.str.849 = private unnamed_addr constant [5 x i8] c": %d\00", align 1
@ipsec_attr_ext_seq_nbr = internal constant [3 x { i32, [4 x i8], ptr }] [{ i32, [4 x i8], ptr } { i32 0, [4 x i8] zeroinitializer, ptr @.str.825 }, { i32, [4 x i8], ptr } { i32 1, [4 x i8] zeroinitializer, ptr @.str.1437 }, { i32, [4 x i8], ptr } zeroinitializer], align 16

; Function Attrs: null_pointer_is_valid sspstrong uwtable
define internal i32 @dissect_ipsec_attribute(ptr noundef %0, ptr noundef %1, ptr noundef %2, i32 noundef %3) #0 {
  %5 = alloca i32, align 4
  %6 = alloca ptr, align 8
  %7 = alloca ptr, align 8
  %8 = alloca ptr, align 8
  %9 = alloca i32, align 4
  %10 = alloca i32, align 4
  %11 = alloca i32, align 4
  %12 = alloca i32, align 4
  %13 = alloca ptr, align 8
  %14 = alloca ptr, align 8
  %15 = alloca i32, align 4
  store ptr %0, ptr %6, align 8
  store ptr %1, ptr %7, align 8
  store ptr %2, ptr %8, align 8
  store i32 %3, ptr %9, align 4
  call void @llvm.lifetime.start.p0(i64 4, ptr %10) #16
  call void @llvm.lifetime.start.p0(i64 4, ptr %11) #16
  call void @llvm.lifetime.start.p0(i64 4, ptr %12) #16
  call void @llvm.lifetime.start.p0(i64 8, ptr %13) #16
  call void @llvm.lifetime.start.p0(i64 8, ptr %14) #16
  %16 = load ptr, ptr %6, align 8
  %17 = load ptr, ptr %8, align 8
  %18 = load i32, ptr %9, align 4
  call void @dissect_attribute_header(ptr noundef %16, ptr noundef %17, i32 noundef %18, ptr noundef byval(%struct._attribute_common_fields) align 8 @hf_isakmp_ipsec_attr, ptr noundef @ipsec_attr_type, ptr noundef %10, ptr noundef %11, ptr noundef %12, ptr noundef %13, ptr noundef %14)
  %19 = load i32, ptr %10, align 4
  %20 = load i32, ptr %9, align 4
  %21 = add i32 %20, %19
  store i32 %21, ptr %9, align 4
  %22 = load i32, ptr %11, align 4
  %23 = icmp eq i32 %22, 0
  br i1 %23, label %24, label %29

24:                                               ; preds = %4
  %25 = load ptr, ptr %7, align 8
  %26 = load ptr, ptr %13, align 8
  %27 = call ptr @expert_add_info(ptr noundef %25, ptr noundef %26, ptr noundef @ei_isakmp_attribute_value_empty)
  %28 = load i32, ptr %10, align 4
  store i32 %28, ptr %5, align 4
  store i32 1, ptr %15, align 4
  br label %206

29:                                               ; preds = %4
  %30 = load i32, ptr %12, align 4
  switch i32 %30, label %201 [
    i32 1, label %31
    i32 2, label %44
    i32 3, label %53
    i32 4, label %66
    i32 5, label %79
    i32 6, label %92
    i32 7, label %104
    i32 8, label %116
    i32 9, label %123
    i32 10, label %130
    i32 11, label %143
    i32 12, label %156
    i32 13, label %168
    i32 14, label %175
    i32 15, label %188
  ]

31:                                               ; preds = %29
  %32 = load ptr, ptr %14, align 8
  %33 = load i32, ptr @hf_isakmp_ipsec_attr_life_type, align 4
  %34 = load ptr, ptr %6, align 8
  %35 = load i32, ptr %9, align 4
  %36 = load i32, ptr %11, align 4
  %37 = call ptr @proto_tree_add_item(ptr noundef %32, i32 noundef %33, ptr noundef %34, i32 noundef %35, i32 noundef %36, i32 noundef 0)
  %38 = load ptr, ptr %13, align 8
  %39 = load ptr, ptr %6, align 8
  %40 = load i32, ptr %9, align 4
  %41 = call zeroext i16 @tvb_get_ntohs(ptr noundef %39, i32 noundef %40)
  %42 = zext i16 %41 to i32
  %43 = call ptr @val_to_str(i32 noundef %42, ptr noundef @attr_life_type, ptr noundef @.str.848)
  call void (ptr, ptr, ...) @proto_item_append_text(ptr noundef %38, ptr noundef @.str.847, ptr noundef %43)
  br label %202

44:                                               ; preds = %29
  %45 = load ptr, ptr %6, align 8
  %46 = load ptr, ptr %14, align 8
  %47 = load ptr, ptr %13, align 8
  %48 = load i32, ptr @hf_isakmp_ipsec_attr_life_duration_uint32, align 4
  %49 = load i32, ptr @hf_isakmp_ipsec_attr_life_duration_uint64, align 4
  %50 = load i32, ptr @hf_isakmp_ipsec_attr_life_duration_bytes, align 4
  %51 = load i32, ptr %9, align 4
  %52 = load i32, ptr %11, align 4
  call void @dissect_life_duration(ptr noundef %45, ptr noundef %46, ptr noundef %47, i32 noundef %48, i32 noundef %49, i32 noundef %50, i32 noundef %51, i32 noundef %52)
  br label %202

53:                                               ; preds = %29
  %54 = load ptr, ptr %14, align 8
  %55 = load i32, ptr @hf_isakmp_ipsec_attr_group_description, align 4
  %56 = load ptr, ptr %6, align 8
  %57 = load i32, ptr %9, align 4
  %58 = load i32, ptr %11, align 4
  %59 = call ptr @proto_tree_add_item(ptr noundef %54, i32 noundef %55, ptr noundef %56, i32 noundef %57, i32 noundef %58, i32 noundef 0)
  %60 = load ptr, ptr %13, align 8
  %61 = load ptr, ptr %6, align 8
  %62 = load i32, ptr %9, align 4
  %63 = call zeroext i16 @tvb_get_ntohs(ptr noundef %61, i32 noundef %62)
  %64 = zext i16 %63 to i32
  %65 = call ptr @val_to_str(i32 noundef %64, ptr noundef @dh_group, ptr noundef @.str.848)
  call void (ptr, ptr, ...) @proto_item_append_text(ptr noundef %60, ptr noundef @.str.847, ptr noundef %65)
  br label %202

66:                                               ; preds = %29
  %67 = load ptr, ptr %14, align 8
  %68 = load i32, ptr @hf_isakmp_ipsec_attr_encap_mode, align 4
  %69 = load ptr, ptr %6, align 8
  %70 = load i32, ptr %9, align 4
  %71 = load i32, ptr %11, align 4
  %72 = call ptr @proto_tree_add_item(ptr noundef %67, i32 noundef %68, ptr noundef %69, i32 noundef %70, i32 noundef %71, i32 noundef 0)
  %73 = load ptr, ptr %13, align 8
  %74 = load ptr, ptr %6, align 8
  %75 = load i32, ptr %9, align 4
  %76 = call zeroext i16 @tvb_get_ntohs(ptr noundef %74, i32 noundef %75)
  %77 = zext i16 %76 to i32
  %78 = call ptr @val_to_str(i32 noundef %77, ptr noundef @ipsec_attr_encap_mode, ptr noundef @.str.848)
  call void (ptr, ptr, ...) @proto_item_append_text(ptr noundef %73, ptr noundef @.str.847, ptr noundef %78)
  br label %202

79:                                               ; preds = %29
  %80 = load ptr, ptr %14, align 8
  %81 = load i32, ptr @hf_isakmp_ipsec_attr_auth_algorithm, align 4
  %82 = load ptr, ptr %6, align 8
  %83 = load i32, ptr %9, align 4
  %84 = load i32, ptr %11, align 4
  %85 = call ptr @proto_tree_add_item(ptr noundef %80, i32 noundef %81, ptr noundef %82, i32 noundef %83, i32 noundef %84, i32 noundef 0)
  %86 = load ptr, ptr %13, align 8
  %87 = load ptr, ptr %6, align 8
  %88 = load i32, ptr %9, align 4
  %89 = call zeroext i16 @tvb_get_ntohs(ptr noundef %87, i32 noundef %88)
  %90 = zext i16 %89 to i32
  %91 = call ptr @val_to_str(i32 noundef %90, ptr noundef @ipsec_attr_auth_algo, ptr noundef @.str.848)
  call void (ptr, ptr, ...) @proto_item_append_text(ptr noundef %86, ptr noundef @.str.847, ptr noundef %91)
  br label %202

92:                                               ; preds = %29
  %93 = load ptr, ptr %14, align 8
  %94 = load i32, ptr @hf_isakmp_ipsec_attr_key_length, align 4
  %95 = load ptr, ptr %6, align 8
  %96 = load i32, ptr %9, align 4
  %97 = load i32, ptr %11, align 4
  %98 = call ptr @proto_tree_add_item(ptr noundef %93, i32 noundef %94, ptr noundef %95, i32 noundef %96, i32 noundef %97, i32 noundef 0)
  %99 = load ptr, ptr %13, align 8
  %100 = load ptr, ptr %6, align 8
  %101 = load i32, ptr %9, align 4
  %102 = call zeroext i16 @tvb_get_ntohs(ptr noundef %100, i32 noundef %101)
  %103 = zext i16 %102 to i32
  call void (ptr, ptr, ...) @proto_item_append_text(ptr noundef %99, ptr noundef @.str.849, i32 noundef %103)
  br label %202

104:                                              ; preds = %29
  %105 = load ptr, ptr %14, align 8
  %106 = load i32, ptr @hf_isakmp_ipsec_attr_key_rounds, align 4
  %107 = load ptr, ptr %6, align 8
  %108 = load i32, ptr %9, align 4
  %109 = load i32, ptr %11, align 4
  %110 = call ptr @proto_tree_add_item(ptr noundef %105, i32 noundef %106, ptr noundef %107, i32 noundef %108, i32 noundef %109, i32 noundef 0)
  %111 = load ptr, ptr %13, align 8
  %112 = load ptr, ptr %6, align 8
  %113 = load i32, ptr %9, align 4
  %114 = call zeroext i16 @tvb_get_ntohs(ptr noundef %112, i32 noundef %113)
  %115 = zext i16 %114 to i32
  call void (ptr, ptr, ...) @proto_item_append_text(ptr noundef %111, ptr noundef @.str.849, i32 noundef %115)
  br label %202

116:                                              ; preds = %29
  %117 = load ptr, ptr %14, align 8
  %118 = load i32, ptr @hf_isakmp_ipsec_attr_cmpr_dict_size, align 4
  %119 = load ptr, ptr %6, align 8
  %120 = load i32, ptr %9, align 4
  %121 = load i32, ptr %11, align 4
  %122 = call ptr @proto_tree_add_item(ptr noundef %117, i32 noundef %118, ptr noundef %119, i32 noundef %120, i32 noundef %121, i32 noundef 0)
  br label %202

123:                                              ; preds = %29
  %124 = load ptr, ptr %14, align 8
  %125 = load i32, ptr @hf_isakmp_ipsec_attr_cmpr_algorithm, align 4
  %126 = load ptr, ptr %6, align 8
  %127 = load i32, ptr %9, align 4
  %128 = load i32, ptr %11, align 4
  %129 = call ptr @proto_tree_add_item(ptr noundef %124, i32 noundef %125, ptr noundef %126, i32 noundef %127, i32 noundef %128, i32 noundef 0)
  br label %202

130:                                              ; preds = %29
  %131 = load ptr, ptr %14, align 8
  %132 = load i32, ptr @hf_isakmp_ipsec_attr_ecn_tunnel, align 4
  %133 = load ptr, ptr %6, align 8
  %134 = load i32, ptr %9, align 4
  %135 = load i32, ptr %11, align 4
  %136 = call ptr @proto_tree_add_item(ptr noundef %131, i32 noundef %132, ptr noundef %133, i32 noundef %134, i32 noundef %135, i32 noundef 0)
  %137 = load ptr, ptr %13, align 8
  %138 = load ptr, ptr %6, align 8
  %139 = load i32, ptr %9, align 4
  %140 = call zeroext i16 @tvb_get_ntohs(ptr noundef %138, i32 noundef %139)
  %141 = zext i16 %140 to i32
  %142 = call ptr @val_to_str(i32 noundef %141, ptr noundef @ipsec_attr_ecn_tunnel, ptr noundef @.str.848)
  call void (ptr, ptr, ...) @proto_item_append_text(ptr noundef %137, ptr noundef @.str.847, ptr noundef %142)
  br label %202

143:                                              ; preds = %29
  %144 = load ptr, ptr %14, align 8
  %145 = load i32, ptr @hf_isakmp_ipsec_attr_ext_seq_nbr, align 4
  %146 = load ptr, ptr %6, align 8
  %147 = load i32, ptr %9, align 4
  %148 = load i32, ptr %11, align 4
  %149 = call ptr @proto_tree_add_item(ptr noundef %144, i32 noundef %145, ptr noundef %146, i32 noundef %147, i32 noundef %148, i32 noundef 0)
  %150 = load ptr, ptr %13, align 8
  %151 = load ptr, ptr %6, align 8
  %152 = load i32, ptr %9, align 4
  %153 = call zeroext i16 @tvb_get_ntohs(ptr noundef %151, i32 noundef %152)
  %154 = zext i16 %153 to i32
  %155 = call ptr @val_to_str(i32 noundef %154, ptr noundef @ipsec_attr_ext_seq_nbr, ptr noundef @.str.848)
  call void (ptr, ptr, ...) @proto_item_append_text(ptr noundef %150, ptr noundef @.str.847, ptr noundef %155)
  br label %202

156:                                              ; preds = %29
  %157 = load ptr, ptr %14, align 8
  %158 = load i32, ptr @hf_isakmp_ipsec_attr_auth_key_length, align 4
  %159 = load ptr, ptr %6, align 8
  %160 = load i32, ptr %9, align 4
  %161 = load i32, ptr %11, align 4
  %162 = call ptr @proto_tree_add_item(ptr noundef %157, i32 noundef %158, ptr noundef %159, i32 noundef %160, i32 noundef %161, i32 noundef 0)
  %163 = load ptr, ptr %13, align 8
  %164 = load ptr, ptr %6, align 8
  %165 = load i32, ptr %9, align 4
  %166 = call zeroext i16 @tvb_get_ntohs(ptr noundef %164, i32 noundef %165)
  %167 = zext i16 %166 to i32
  call void (ptr, ptr, ...) @proto_item_append_text(ptr noundef %163, ptr noundef @.str.849, i32 noundef %167)
  br label %202

168:                                              ; preds = %29
  %169 = load ptr, ptr %14, align 8
  %170 = load i32, ptr @hf_isakmp_ipsec_attr_sig_enco_algorithm, align 4
  %171 = load ptr, ptr %6, align 8
  %172 = load i32, ptr %9, align 4
  %173 = load i32, ptr %11, align 4
  %174 = call ptr @proto_tree_add_item(ptr noundef %169, i32 noundef %170, ptr noundef %171, i32 noundef %172, i32 noundef %173, i32 noundef 0)
  br label %202

175:                                              ; preds = %29
  %176 = load ptr, ptr %14, align 8
  %177 = load i32, ptr @hf_isakmp_ipsec_attr_addr_preservation, align 4
  %178 = load ptr, ptr %6, align 8
  %179 = load i32, ptr %9, align 4
  %180 = load i32, ptr %11, align 4
  %181 = call ptr @proto_tree_add_item(ptr noundef %176, i32 noundef %177, ptr noundef %178, i32 noundef %179, i32 noundef %180, i32 noundef 0)
  %182 = load ptr, ptr %13, align 8
  %183 = load ptr, ptr %6, align 8
  %184 = load i32, ptr %9, align 4
  %185 = call zeroext i16 @tvb_get_ntohs(ptr noundef %183, i32 noundef %184)
  %186 = zext i16 %185 to i32
  %187 = call ptr @val_to_str(i32 noundef %186, ptr noundef @ipsec_attr_addr_preservation, ptr noundef @.str.848)
  call void (ptr, ptr, ...) @proto_item_append_text(ptr noundef %182, ptr noundef @.str.847, ptr noundef %187)
  br label %202

188:                                              ; preds = %29
  %189 = load ptr, ptr %14, align 8
  %190 = load i32, ptr @hf_isakmp_ipsec_attr_sa_direction, align 4
  %191 = load ptr, ptr %6, align 8
  %192 = load i32, ptr %9, align 4
  %193 = load i32, ptr %11, align 4
  %194 = call ptr @proto_tree_add_item(ptr noundef %189, i32 noundef %190, ptr noundef %191, i32 noundef %192, i32 noundef %193, i32 noundef 0)
  %195 = load ptr, ptr %13, align 8
  %196 = load ptr, ptr %6, align 8
  %197 = load i32, ptr %9, align 4
  %198 = call zeroext i16 @tvb_get_ntohs(ptr noundef %196, i32 noundef %197)
  %199 = zext i16 %198 to i32
  %200 = call ptr @val_to_str(i32 noundef %199, ptr noundef @ipsec_attr_sa_direction, ptr noundef @.str.848)
  call void (ptr, ptr, ...) @proto_item_append_text(ptr noundef %195, ptr noundef @.str.847, ptr noundef %200)
  br label %201

201:                                              ; preds = %29, %188
  br label %202

202:                                              ; preds = %201, %175, %168, %156, %143, %130, %123, %116, %104, %92, %79, %66, %53, %44, %31
  %203 = load i32, ptr %10, align 4
  %204 = load i32, ptr %11, align 4
  %205 = add i32 %203, %204
  store i32 %205, ptr %5, align 4
  store i32 1, ptr %15, align 4
  br label %206

206:                                              ; preds = %202, %24
  call void @llvm.lifetime.end.p0(i64 8, ptr %14) #16
  call void @llvm.lifetime.end.p0(i64 8, ptr %13) #16
  call void @llvm.lifetime.end.p0(i64 4, ptr %12) #16
  call void @llvm.lifetime.end.p0(i64 4, ptr %11) #16
  call void @llvm.lifetime.end.p0(i64 4, ptr %10) #16
  %207 = load i32, ptr %5, align 4
  ret i32 %207
}