; Function Attrs: null_pointer_is_valid sspstrong uwtable
define internal fastcc i32 @dissect_ipsec_attribute(ptr noundef %0, ptr noundef %1, ptr noundef %2, i32 noundef %3) unnamed_addr #0 {
  %5 = alloca i32, align 4
  %6 = alloca i32, align 4
  %7 = alloca i32, align 4
  %8 = alloca ptr, align 8
  %9 = alloca ptr, align 8
  call void @llvm.lifetime.start.p0(i64 4, ptr nonnull %5) #20
  call void @llvm.lifetime.start.p0(i64 4, ptr nonnull %6) #20
  call void @llvm.lifetime.start.p0(i64 4, ptr nonnull %7) #20
  call void @llvm.lifetime.start.p0(i64 8, ptr nonnull %8) #20
  call void @llvm.lifetime.start.p0(i64 8, ptr nonnull %9) #20
  call fastcc void @dissect_attribute_header(ptr noundef %0, ptr noundef %2, i32 noundef %3, ptr noundef nonnull byval(%struct._attribute_common_fields) align 8 @hf_isakmp_ipsec_attr, ptr noundef nonnull @ipsec_attr_type, ptr noundef nonnull %5, ptr noundef nonnull %6, ptr noundef nonnull %7, ptr noundef nonnull %8, ptr noundef nonnull %9)
  %10 = load i32, ptr %5, align 4
  %11 = add i32 %10, %3
  %12 = load i32, ptr %6, align 4
  %13 = icmp eq i32 %12, 0
  br i1 %13, label %14, label %17

14:                                               ; preds = %4
  %15 = load ptr, ptr %8, align 8
  %16 = tail call ptr @expert_add_info(ptr noundef %1, ptr noundef %15, ptr noundef nonnull @ei_isakmp_attribute_value_empty)
  br label %124

17:                                               ; preds = %4
  %18 = load i32, ptr %7, align 4
  switch i32 %18, label %122 [
    i32 1, label %19
    i32 2, label %27
    i32 3, label %33
    i32 4, label %41
    i32 5, label %49
    i32 6, label %57
    i32 7, label %64
    i32 8, label %71
    i32 9, label %75
    i32 10, label %79
    i32 11, label %87
    i32 12, label %95
    i32 13, label %102
    i32 14, label %106
    i32 15, label %114
  ]

19:                                               ; preds = %17
  %20 = load ptr, ptr %9, align 8
  %21 = load i32, ptr @hf_isakmp_ipsec_attr_life_type, align 4
  %22 = tail call ptr @proto_tree_add_item(ptr noundef %20, i32 noundef %21, ptr noundef %0, i32 noundef %11, i32 noundef %12, i32 noundef 0)
  %23 = load ptr, ptr %8, align 8
  %24 = tail call zeroext i16 @tvb_get_ntohs(ptr noundef %0, i32 noundef %11)
  %25 = zext i16 %24 to i32
  %26 = tail call ptr @val_to_str(i32 noundef %25, ptr noundef nonnull @attr_life_type, ptr noundef nonnull @.str.848)
  tail call void (ptr, ptr, ...) @proto_item_append_text(ptr noundef %23, ptr noundef nonnull @.str.847, ptr noundef %26)
  br label %122

27:                                               ; preds = %17
  %28 = load ptr, ptr %9, align 8
  %29 = load ptr, ptr %8, align 8
  %30 = load i32, ptr @hf_isakmp_ipsec_attr_life_duration_uint32, align 4
  %31 = load i32, ptr @hf_isakmp_ipsec_attr_life_duration_uint64, align 4
  %32 = load i32, ptr @hf_isakmp_ipsec_attr_life_duration_bytes, align 4
  tail call fastcc void @dissect_life_duration(ptr noundef %0, ptr noundef %28, ptr noundef %29, i32 noundef %30, i32 noundef %31, i32 noundef %32, i32 noundef %11, i32 noundef %12)
  br label %122

33:                                               ; preds = %17
  %34 = load ptr, ptr %9, align 8
  %35 = load i32, ptr @hf_isakmp_ipsec_attr_group_description, align 4
  %36 = tail call ptr @proto_tree_add_item(ptr noundef %34, i32 noundef %35, ptr noundef %0, i32 noundef %11, i32 noundef %12, i32 noundef 0)
  %37 = load ptr, ptr %8, align 8
  %38 = tail call zeroext i16 @tvb_get_ntohs(ptr noundef %0, i32 noundef %11)
  %39 = zext i16 %38 to i32
  %40 = tail call ptr @val_to_str(i32 noundef %39, ptr noundef nonnull @dh_group, ptr noundef nonnull @.str.848)
  tail call void (ptr, ptr, ...) @proto_item_append_text(ptr noundef %37, ptr noundef nonnull @.str.847, ptr noundef %40)
  br label %122

41:                                               ; preds = %17
  %42 = load ptr, ptr %9, align 8
  %43 = load i32, ptr @hf_isakmp_ipsec_attr_encap_mode, align 4
  %44 = tail call ptr @proto_tree_add_item(ptr noundef %42, i32 noundef %43, ptr noundef %0, i32 noundef %11, i32 noundef %12, i32 noundef 0)
  %45 = load ptr, ptr %8, align 8
  %46 = tail call zeroext i16 @tvb_get_ntohs(ptr noundef %0, i32 noundef %11)
  %47 = zext i16 %46 to i32
  %48 = tail call ptr @val_to_str(i32 noundef %47, ptr noundef nonnull @ipsec_attr_encap_mode, ptr noundef nonnull @.str.848)
  tail call void (ptr, ptr, ...) @proto_item_append_text(ptr noundef %45, ptr noundef nonnull @.str.847, ptr noundef %48)
  br label %122

49:                                               ; preds = %17
  %50 = load ptr, ptr %9, align 8
  %51 = load i32, ptr @hf_isakmp_ipsec_attr_auth_algorithm, align 4
  %52 = tail call ptr @proto_tree_add_item(ptr noundef %50, i32 noundef %51, ptr noundef %0, i32 noundef %11, i32 noundef %12, i32 noundef 0)
  %53 = load ptr, ptr %8, align 8
  %54 = tail call zeroext i16 @tvb_get_ntohs(ptr noundef %0, i32 noundef %11)
  %55 = zext i16 %54 to i32
  %56 = tail call ptr @val_to_str(i32 noundef %55, ptr noundef nonnull @ipsec_attr_auth_algo, ptr noundef nonnull @.str.848)
  tail call void (ptr, ptr, ...) @proto_item_append_text(ptr noundef %53, ptr noundef nonnull @.str.847, ptr noundef %56)
  br label %122

57:                                               ; preds = %17
  %58 = load ptr, ptr %9, align 8
  %59 = load i32, ptr @hf_isakmp_ipsec_attr_key_length, align 4
  %60 = tail call ptr @proto_tree_add_item(ptr noundef %58, i32 noundef %59, ptr noundef %0, i32 noundef %11, i32 noundef %12, i32 noundef 0)
  %61 = load ptr, ptr %8, align 8
  %62 = tail call zeroext i16 @tvb_get_ntohs(ptr noundef %0, i32 noundef %11)
  %63 = zext i16 %62 to i32
  tail call void (ptr, ptr, ...) @proto_item_append_text(ptr noundef %61, ptr noundef nonnull @.str.849, i32 noundef %63)
  br label %122

64:                                               ; preds = %17
  %65 = load ptr, ptr %9, align 8
  %66 = load i32, ptr @hf_isakmp_ipsec_attr_key_rounds, align 4
  %67 = tail call ptr @proto_tree_add_item(ptr noundef %65, i32 noundef %66, ptr noundef %0, i32 noundef %11, i32 noundef %12, i32 noundef 0)
  %68 = load ptr, ptr %8, align 8
  %69 = tail call zeroext i16 @tvb_get_ntohs(ptr noundef %0, i32 noundef %11)
  %70 = zext i16 %69 to i32
  tail call void (ptr, ptr, ...) @proto_item_append_text(ptr noundef %68, ptr noundef nonnull @.str.849, i32 noundef %70)
  br label %122

71:                                               ; preds = %17
  %72 = load ptr, ptr %9, align 8
  %73 = load i32, ptr @hf_isakmp_ipsec_attr_cmpr_dict_size, align 4
  %74 = tail call ptr @proto_tree_add_item(ptr noundef %72, i32 noundef %73, ptr noundef %0, i32 noundef %11, i32 noundef %12, i32 noundef 0)
  br label %122

75:                                               ; preds = %17
  %76 = load ptr, ptr %9, align 8
  %77 = load i32, ptr @hf_isakmp_ipsec_attr_cmpr_algorithm, align 4
  %78 = tail call ptr @proto_tree_add_item(ptr noundef %76, i32 noundef %77, ptr noundef %0, i32 noundef %11, i32 noundef %12, i32 noundef 0)
  br label %122

79:                                               ; preds = %17
  %80 = load ptr, ptr %9, align 8
  %81 = load i32, ptr @hf_isakmp_ipsec_attr_ecn_tunnel, align 4
  %82 = tail call ptr @proto_tree_add_item(ptr noundef %80, i32 noundef %81, ptr noundef %0, i32 noundef %11, i32 noundef %12, i32 noundef 0)
  %83 = load ptr, ptr %8, align 8
  %84 = tail call zeroext i16 @tvb_get_ntohs(ptr noundef %0, i32 noundef %11)
  %85 = zext i16 %84 to i32
  %86 = tail call ptr @val_to_str(i32 noundef %85, ptr noundef nonnull @ipsec_attr_ecn_tunnel, ptr noundef nonnull @.str.848)
  tail call void (ptr, ptr, ...) @proto_item_append_text(ptr noundef %83, ptr noundef nonnull @.str.847, ptr noundef %86)
  br label %122

87:                                               ; preds = %17
  %88 = load ptr, ptr %9, align 8
  %89 = load i32, ptr @hf_isakmp_ipsec_attr_ext_seq_nbr, align 4
  %90 = tail call ptr @proto_tree_add_item(ptr noundef %88, i32 noundef %89, ptr noundef %0, i32 noundef %11, i32 noundef %12, i32 noundef 0)
  %91 = load ptr, ptr %8, align 8
  %92 = tail call zeroext i16 @tvb_get_ntohs(ptr noundef %0, i32 noundef %11)
  %93 = zext i16 %92 to i32
  %94 = tail call ptr @val_to_str(i32 noundef %93, ptr noundef nonnull @ipsec_attr_ext_seq_nbr, ptr noundef nonnull @.str.848)
  tail call void (ptr, ptr, ...) @proto_item_append_text(ptr noundef %91, ptr noundef nonnull @.str.847, ptr noundef %94)
  br label %122

95:                                               ; preds = %17
  %96 = load ptr, ptr %9, align 8
  %97 = load i32, ptr @hf_isakmp_ipsec_attr_auth_key_length, align 4
  %98 = tail call ptr @proto_tree_add_item(ptr noundef %96, i32 noundef %97, ptr noundef %0, i32 noundef %11, i32 noundef %12, i32 noundef 0)
  %99 = load ptr, ptr %8, align 8
  %100 = tail call zeroext i16 @tvb_get_ntohs(ptr noundef %0, i32 noundef %11)
  %101 = zext i16 %100 to i32
  tail call void (ptr, ptr, ...) @proto_item_append_text(ptr noundef %99, ptr noundef nonnull @.str.849, i32 noundef %101)
  br label %122

102:                                              ; preds = %17
  %103 = load ptr, ptr %9, align 8
  %104 = load i32, ptr @hf_isakmp_ipsec_attr_sig_enco_algorithm, align 4
  %105 = tail call ptr @proto_tree_add_item(ptr noundef %103, i32 noundef %104, ptr noundef %0, i32 noundef %11, i32 noundef %12, i32 noundef 0)
  br label %122

106:                                              ; preds = %17
  %107 = load ptr, ptr %9, align 8
  %108 = load i32, ptr @hf_isakmp_ipsec_attr_addr_preservation, align 4
  %109 = tail call ptr @proto_tree_add_item(ptr noundef %107, i32 noundef %108, ptr noundef %0, i32 noundef %11, i32 noundef %12, i32 noundef 0)
  %110 = load ptr, ptr %8, align 8
  %111 = tail call zeroext i16 @tvb_get_ntohs(ptr noundef %0, i32 noundef %11)
  %112 = zext i16 %111 to i32
  %113 = tail call ptr @val_to_str(i32 noundef %112, ptr noundef nonnull @ipsec_attr_addr_preservation, ptr noundef nonnull @.str.848)
  tail call void (ptr, ptr, ...) @proto_item_append_text(ptr noundef %110, ptr noundef nonnull @.str.847, ptr noundef %113)
  br label %122

114:                                              ; preds = %17
  %115 = load ptr, ptr %9, align 8
  %116 = load i32, ptr @hf_isakmp_ipsec_attr_sa_direction, align 4
  %117 = tail call ptr @proto_tree_add_item(ptr noundef %115, i32 noundef %116, ptr noundef %0, i32 noundef %11, i32 noundef %12, i32 noundef 0)
  %118 = load ptr, ptr %8, align 8
  %119 = tail call zeroext i16 @tvb_get_ntohs(ptr noundef %0, i32 noundef %11)
  %120 = zext i16 %119 to i32
  %121 = tail call ptr @val_to_str(i32 noundef %120, ptr noundef nonnull @ipsec_attr_sa_direction, ptr noundef nonnull @.str.848)
  tail call void (ptr, ptr, ...) @proto_item_append_text(ptr noundef %118, ptr noundef nonnull @.str.847, ptr noundef %121)
  br label %122

122:                                              ; preds = %17, %114, %106, %102, %95, %87, %79, %75, %71, %64, %57, %49, %41, %33, %27, %19
  %123 = add i32 %12, %10
  br label %124

124:                                              ; preds = %122, %14
  %.0 = phi i32 [ %10, %14 ], [ %123, %122 ]
  call void @llvm.lifetime.end.p0(i64 8, ptr nonnull %9) #20
  call void @llvm.lifetime.end.p0(i64 8, ptr nonnull %8) #20
  call void @llvm.lifetime.end.p0(i64 4, ptr nonnull %7) #20
  call void @llvm.lifetime.end.p0(i64 4, ptr nonnull %6) #20
  call void @llvm.lifetime.end.p0(i64 4, ptr nonnull %5) #20
  ret i32 %.0
}